Certificate:
    Data:
        Version: 3 (0x2)
        Serial Number: 4096 (0x1000)
    Signature Algorithm: sha256WithRSAEncryption
        Issuer: C=CZ, ST=Czech Republic, L=Lhota, O=Somebody, CN=Somebody
        Validity
            Not Before: Jul 14 19:29:28 2015 GMT
            Not After : Mar 22 19:29:28 2029 GMT
        Subject: C=CZ, ST=Czech Republic, L=Lhota, O=Somebody, CN=*.example.com
        Subject Public Key Info:
            Public Key Algorithm: rsaEncryption
                Public-Key: (4096 bit)
                Modulus:
                    00:dd:1e:57:42:ed:ae:39:b6:d8:f7:c7:07:68:57:
                    e0:3a:28:1d:dc:53:d6:5d:5d:c7:94:52:e8:49:3f:
                    f0:6c:f0:b1:4f:19:a6:a5:d1:6a:9b:90:2f:f3:70:
                    77:de:1d:e1:de:f3:2c:6a:ff:4c:7a:16:5f:54:a0:
                    af:c3:56:44:07:35:dc:8f:3a:b0:d7:bf:f1:66:10:
                    37:cb:70:63:cf:88:0a:5a:67:09:63:c4:2c:f2:36:
                    7b:7a:cb:d4:93:bd:4b:55:47:f2:cd:92:62:4c:ea:
                    26:d6:de:79:39:e9:0d:1a:f5:d5:c3:6e:e0:7d:f2:
                    74:12:2d:23:00:4d:8e:4b:d4:ab:8f:91:0c:25:a7:
                    06:51:41:7f:db:43:d1:65:63:b0:2c:b8:f1:c1:dc:
                    36:67:4c:e1:ca:c1:3a:79:0d:a7:18:01:0f:cc:71:
                    4d:e4:ce:06:b3:70:df:35:a1:e8:73:a1:5c:98:13:
                    f4:d7:f7:d9:03:53:6e:ac:c5:4e:54:70:33:e7:3a:
                    69:27:1e:a0:02:52:a2:3f:4a:8a:a8:35:b0:a7:e7:
                    54:29:b3:0f:47:26:23:b9:b7:17:e4:9e:dd:a8:1c:
                    f1:1f:e3:24:cb:72:dc:41:66:cf:81:9e:7e:e6:b4:
                    50:e9:a8:c5:67:df:e9:70:2b:e0:84:7e:41:07:0d:
                    58:af:17:db:7c:07:d5:a0:6f:7c:a9:63:ca:14:b0:
                    12:0e:1b:3a:d6:ca:c3:7c:09:7d:ba:e9:da:9f:88:
                    b0:b7:05:76:b1:e1:b9:af:49:86:93:7c:eb:87:0b:
                    5a:cc:24:a8:ef:da:54:4a:2d:94:60:9a:dc:ee:a7:
                    a6:d8:c7:1b:1a:72:b6:6c:2c:b2:2a:e4:66:3a:53:
                    ca:6c:96:74:f7:41:70:95:d7:b8:0c:dc:dd:61:05:
                    85:48:83:66:eb:ff:35:28:82:b7:2b:83:8e:68:75:
                    39:56:f4:e2:74:43:85:ba:a9:b9:a7:89:6a:16:44:
                    c5:bb:bc:50:63:d2:87:3f:46:0b:67:e6:60:80:bd:
                    d8:a6:ed:e2:56:f4:c3:fc:1f:c8:a3:aa:d1:96:d6:
                    e8:c7:e6:1b:5d:7a:f9:82:35:2c:45:1d:ef:5b:48:
                    26:00:d6:29:9f:4e:87:4e:79:05:dc:af:ee:d9:ec:
                    27:ce:18:00:09:00:1c:c8:c7:34:93:67:6a:0e:bb:
                    9b:e6:ba:c3:82:a8:f1:62:8e:43:5b:40:99:0e:a8:
                    c2:b8:0d:9f:cd:12:d1:b4:96:7e:cb:a5:fc:41:41:
                    d3:3c:ab:81:12:47:1a:28:b4:06:6d:ef:3b:06:b1:
                    0e:38:a4:22:83:d2:b7:eb:67:8f:fb:e3:3a:3b:a0:
                    b6:30:6b
                Exponent: 65537 (0x10001)
        X509v3 extensions:
            X509v3 Basic Constraints: 
                CA:FALSE
            Netscape Comment: 
                OpenSSL Generated Certificate
            X509v3 Subject Key Identifier: 
                18:D7:85:D8:54:90:D2:DE:EF:13:9B:45:51:A1:31:F1:D5:F9:93:C8
            X509v3 Authority Key Identifier: 
                keyid:BC:15:85:0F:26:5A:1C:56:12:41:91:E7:19:B8:34:DD:19:78:70:4D

    Signature Algorithm: sha256WithRSAEncryption
         8d:b7:66:4a:44:6e:ab:d4:78:ad:ad:a6:06:56:59:fd:31:c6:
         40:21:6e:eb:e1:b3:47:98:29:75:47:f1:f3:8d:49:6f:6b:81:
         e0:f8:8b:d4:a0:de:ae:5d:08:8f:b4:07:05:27:04:42:1d:bf:
         2f:dc:06:fb:18:24:b0:71:c8:b4:65:46:9c:78:1a:59:fa:48:
         2b:3e:54:7b:9b:dd:60:9f:74:f2:42:84:3e:c3:75:e8:b7:8e:
         6c:70:af:9a:c3:6f:45:e2:07:49:64:1a:5d:68:7d:63:3c:fd:
         21:fa:5e:bf:22:91:2e:0d:6f:4c:c0:76:f3:6c:fa:4c:76:31:
         4a:49:3a:db:ea:77:88:ee:52:a2:d0:1b:86:5d:34:26:8a:a9:
         8e:02:47:c6:05:b2:b2:d5:1b:02:1c:d0:45:4c:6d:2c:99:ee:
         6d:05:97:8d:8f:54:81:cc:48:ad:81:ef:30:20:7c:71:27:5e:
         58:d5:ee:96:7a:54:55:ce:1a:2a:0a:68:0c:37:4c:6d:dc:ee:
         37:e5:47:34:fc:5f:4e:d6:31:5b:86:43:8b:b5:fa:31:fe:65:
         10:42:94:00:94:46:db:5b:a3:3a:a3:c4:6e:00:f4:d4:99:59:
         eb:fc:3a:8e:61:a1:a1:36:fd:eb:84:e5:bb:7c:83:f2:f5:89:
         0e:93:3a:39:d1:39:3f:75:69:02:f3:e4:09:d1:71:41:f0:09:
         d4:a0:49:95:be:01:fb:57:bd:48:52:36:64:36:a1:f5:af:72:
         3a:d4:c3:26:d5:15:2d:97:b0:e8:b1:35:92:d5:ff:c5:17:c0:
         60:df:0d:ae:85:9b:c5:61:43:a7:14:6d:a6:62:5a:7b:78:46:
         02:c0:49:1b:b0:56:67:1a:de:28:0f:0c:cf:bf:1e:75:8f:ba:
         1a:1c:81:da:cb:81:fd:24:aa:ff:36:f7:b8:cf:30:4c:1a:bf:
         af:b8:dc:08:64:37:1f:32:4b:8e:f8:d9:39:f4:5c:87:38:03:
         c2:ed:8d:86:68:a5:ce:60:49:a6:f1:05:e1:23:76:c2:2b:e7:
         40:f4:8d:98:1f:1c:31:a7:29:ab:d2:b0:1b:88:a2:b5:4f:9e:
         4d:3e:ac:53:6d:97:e9:0d:24:a0:33:6d:53:d9:44:1d:14:23:
         bc:4b:91:6a:53:3a:5e:f1:c5:ef:a8:d0:fe:3a:f7:76:64:fc:
         d2:fb:ee:5e:44:b4:9f:34:45:0b:1d:32:36:9a:ce:9c:c6:3e:
         53:51:96:ed:82:46:dc:09:f1:40:25:5b:8c:8a:55:92:46:16:
         a9:78:dd:a4:38:d8:99:e1:71:cf:6b:95:04:d4:64:b0:d4:b3:
         79:b9:c1:13:fa:4c:1d:0d
-----BEGIN CERTIFICATE-----
MIIFtDCCA5ygAwIBAgICEAAwDQYJKoZIhvcNAQELBQAwXDELMAkGA1UEBhMCQ1ox
FzAVBgNVBAgMDkN6ZWNoIFJlcHVibGljMQ4wDAYDVQQHDAVMaG90YTERMA8GA1UE
CgwIU29tZWJvZHkxETAPBgNVBAMMCFNvbWVib2R5MB4XDTE1MDcxNDE5MjkyOFoX
DTI5MDMyMjE5MjkyOFowYTELMAkGA1UEBhMCQ1oxFzAVBgNVBAgMDkN6ZWNoIFJl
cHVibGljMQ4wDAYDVQQHDAVMaG90YTERMA8GA1UECgwIU29tZWJvZHkxFjAUBgNV
BAMMDSouZXhhbXBsZS5jb20wggIiMA0GCSqGSIb3DQEBAQUAA4ICDwAwggIKAoIC
AQDdHldC7a45ttj3xwdoV+A6KB3cU9ZdXceUUuhJP/Bs8LFPGaal0WqbkC/zcHfe
HeHe8yxq/0x6Fl9UoK/DVkQHNdyPOrDXv/FmEDfLcGPPiApaZwljxCzyNnt6y9ST
vUtVR/LNkmJM6ibW3nk56Q0a9dXDbuB98nQSLSMATY5L1KuPkQwlpwZRQX/bQ9Fl
Y7AsuPHB3DZnTOHKwTp5DacYAQ/McU3kzgazcN81oehzoVyYE/TX99kDU26sxU5U
cDPnOmknHqACUqI/SoqoNbCn51Qpsw9HJiO5txfknt2oHPEf4yTLctxBZs+Bnn7m
tFDpqMVn3+lwK+CEfkEHDVivF9t8B9Wgb3ypY8oUsBIOGzrWysN8CX266dqfiLC3
BXax4bmvSYaTfOuHC1rMJKjv2lRKLZRgmtzup6bYxxsacrZsLLIq5GY6U8pslnT3
QXCV17gM3N1hBYVIg2br/zUogrcrg45odTlW9OJ0Q4W6qbmniWoWRMW7vFBj0oc/
Rgtn5mCAvdim7eJW9MP8H8ijqtGW1ujH5htdevmCNSxFHe9bSCYA1imfTodOeQXc
r+7Z7CfOGAAJABzIxzSTZ2oOu5vmusOCqPFijkNbQJkOqMK4DZ/NEtG0ln7LpfxB
QdM8q4ESRxootAZt7zsGsQ44pCKD0rfrZ4/74zo7oLYwawIDAQABo3sweTAJBgNV
HRMEAjAAMCwGCWCGSAGG+EIBDQQfFh1PcGVuU1NMIEdlbmVyYXRlZCBDZXJ0aWZp
Y2F0ZTAdBgNVHQ4EFgQUGNeF2FSQ0t7vE5tFUaEx8dX5k8gwHwYDVR0jBBgwFoAU
vBWFDyZaHFYSQZHnGbg03Rl4cE0wDQYJKoZIhvcNAQELBQADggIBAI23ZkpEbqvU
eK2tpgZWWf0xxkAhbuvhs0eYKXVH8fONSW9rgeD4i9Sg3q5dCI+0BwUnBEIdvy/c
BvsYJLBxyLRlRpx4Gln6SCs+VHub3WCfdPJChD7Ddei3jmxwr5rDb0XiB0lkGl1o
fWM8/SH6Xr8ikS4Nb0zAdvNs+kx2MUpJOtvqd4juUqLQG4ZdNCaKqY4CR8YFsrLV
GwIc0EVMbSyZ7m0Fl42PVIHMSK2B7zAgfHEnXljV7pZ6VFXOGioKaAw3TG3c7jfl
RzT8X07WMVuGQ4u1+jH+ZRBClACURttbozqjxG4A9NSZWev8Oo5hoaE2/euE5bt8
g/L1iQ6TOjnROT91aQLz5AnRcUHwCdSgSZW+AftXvUhSNmQ2ofWvcjrUwybVFS2X
sOixNZLV/8UXwGDfDa6Fm8VhQ6cUbaZiWnt4RgLASRuwVmca3igPDM+/HnWPuhoc
gdrLgf0kqv8297jPMEwav6+43AhkNx8yS4742Tn0XIc4A8LtjYZopc5gSabxBeEj
dsIr50D0jZgfHDGnKavSsBuIorVPnk0+rFNtl+kNJKAzbVPZRB0UI7xLkWpTOl7x
xe+o0P4693Zk/NL77l5EtJ80RQsdMjaazpzGPlNRlu2CRtwJ8UAlW4yKVZJGFql4
3aQ42Jnhcc9rlQTUZLDUs3m5wRP6TB0N
-----END CERTIFICATE-----
