Certificate:
    Data:
        Version: 3 (0x2)
        Serial Number: 4097 (0x1001)
    Signature Algorithm: sha256WithRSAEncryption
        Issuer: C=CZ, ST=Czech Republic, L=Lhota, O=Somebody, CN=Somebody
        Validity
            Not Before: Jul 14 19:31:10 2015 GMT
            Not After : Mar 22 19:31:10 2029 GMT
        Subject: C=CZ, ST=Czech Republic, L=Lhota, O=Somebody, CN=*.example.cz
        Subject Public Key Info:
            Public Key Algorithm: rsaEncryption
                Public-Key: (4096 bit)
                Modulus:
                    00:be:eb:d7:21:15:1e:7d:9f:b7:9b:ed:7c:5d:00:
                    06:96:a5:1c:d5:b5:16:97:92:57:76:da:31:43:66:
                    b7:e8:aa:4d:10:43:36:61:e9:9c:b6:80:80:61:37:
                    b7:08:6e:2e:37:29:d0:c0:ac:8b:1b:1f:ef:fb:07:
                    ba:ee:4e:a6:53:92:fd:43:08:70:73:b3:b1:15:fd:
                    82:67:26:c0:b7:d2:24:ee:84:5b:18:01:8b:53:3c:
                    cc:59:94:50:b7:f7:b3:a0:51:7c:dc:44:e8:d4:e7:
                    be:9a:93:91:67:a4:7d:3e:32:31:d2:78:38:17:e1:
                    64:0a:23:50:74:c1:32:5d:a6:ae:e9:55:c9:aa:20:
                    ce:3b:a2:91:d8:dd:aa:94:f1:e1:62:5f:04:99:b9:
                    37:98:ea:e1:e9:f0:9d:bc:99:5b:dc:c1:18:66:fa:
                    00:27:3b:df:4a:05:d7:46:0c:b9:35:22:74:09:db:
                    3c:f8:26:95:24:3b:5b:b7:16:ed:a6:7c:51:81:4e:
                    6a:3b:9c:7a:8c:e8:71:5b:31:b3:09:80:e2:dd:67:
                    d5:e3:b3:82:29:b0:c5:78:b4:83:a3:ad:a7:93:58:
                    af:90:90:59:4c:b8:25:a5:68:6e:cf:88:84:bd:ad:
                    78:67:42:7d:a6:2e:2b:2d:18:44:ff:5f:ec:3e:fb:
                    87:cb:2d:fe:d9:ad:61:71:48:65:77:09:06:d4:c4:
                    72:14:d7:42:38:05:b4:00:4a:48:17:42:60:92:d4:
                    52:9c:c0:a5:23:2f:f7:06:5b:91:92:b0:d1:6e:f0:
                    79:3e:c8:d5:54:bc:40:78:c1:74:28:2e:a3:01:70:
                    08:09:ca:ba:ef:d2:dc:36:ee:b7:3a:35:df:d4:fa:
                    fe:70:94:49:6c:f2:6a:24:51:97:be:44:ab:a9:14:
                    78:9b:ba:99:e1:67:d8:b6:95:4c:b2:80:0e:14:e5:
                    34:57:47:cc:f7:6d:8e:7a:da:d5:03:7d:39:d7:59:
                    03:00:66:1b:4c:d5:01:b8:54:90:44:d7:f7:d7:2a:
                    69:14:b5:4a:2f:17:00:63:a3:e5:e6:76:ec:13:23:
                    d3:51:34:1a:79:ea:55:7b:2d:9e:7f:95:9d:c5:17:
                    27:6d:6e:f6:a6:ad:fb:79:1c:cc:13:8c:da:ee:44:
                    63:cd:68:45:0b:6a:fe:37:f4:37:9c:a9:43:a3:ec:
                    3a:61:26:16:90:51:bc:52:f7:7d:3e:26:9c:c5:0a:
                    85:d3:74:76:b8:e0:de:e2:cb:b6:2a:96:8c:68:ae:
                    47:3f:8e:32:0f:aa:46:bc:7e:c3:52:3a:a7:36:f0:
                    8d:b0:81:80:ab:c1:63:c6:39:6d:53:86:83:ef:41:
                    0b:ef:6b
                Exponent: 65537 (0x10001)
        X509v3 extensions:
            X509v3 Basic Constraints: 
                CA:FALSE
            Netscape Comment: 
                OpenSSL Generated Certificate
            X509v3 Subject Key Identifier: 
                6B:81:11:BA:54:C5:56:50:E8:91:39:05:99:76:66:3F:17:91:71:0F
            X509v3 Authority Key Identifier: 
                keyid:BC:15:85:0F:26:5A:1C:56:12:41:91:E7:19:B8:34:DD:19:78:70:4D

    Signature Algorithm: sha256WithRSAEncryption
         10:20:29:cd:3b:ea:60:96:4b:1f:39:59:26:64:e8:80:a8:5e:
         82:3f:bf:20:02:f5:d8:80:38:40:d4:d7:50:48:80:4c:f1:f1:
         bf:4e:a3:90:2e:cd:aa:d4:2a:c6:98:67:08:a8:50:f5:f5:89:
         15:38:4e:c2:fe:ac:cf:40:bd:15:34:d7:3e:a0:5e:19:d0:1d:
         df:6b:2a:1d:0e:09:2d:e3:a9:f0:f7:84:71:be:41:8f:cc:74:
         97:56:e1:b5:7e:1a:88:28:a9:c5:5f:04:62:8a:9c:76:5e:84:
         14:c7:a9:b2:17:b9:76:13:82:50:68:98:0b:41:9d:80:39:d1:
         27:a7:57:18:3b:b5:b5:70:2a:5a:04:3e:a8:7f:67:d1:0c:55:
         7b:6b:2e:0e:72:53:04:79:29:20:f0:56:4a:3c:03:74:47:d0:
         b1:98:0e:3a:49:04:45:9d:33:1c:53:de:1b:ea:78:6f:25:a2:
         1a:b2:87:f4:a7:bb:bc:62:91:dc:93:b7:2f:3b:bf:ca:ed:f9:
         fe:b6:28:34:54:24:0f:0a:9e:38:f3:cb:6d:c9:ed:f6:76:b9:
         52:81:e5:65:9d:26:9c:e2:ed:45:83:2e:4f:cd:50:28:b9:7f:
         fc:cc:5e:3a:12:e4:21:c4:c2:19:81:7a:4b:42:3c:ab:24:9b:
         47:8c:c1:ce:31:e1:6e:aa:df:30:d8:3f:66:c4:4c:c7:f2:9b:
         f4:b7:f1:05:3b:90:f3:fa:66:57:de:2c:ab:71:f1:14:5f:e2:
         29:af:21:24:7f:28:8f:1b:2b:96:aa:b0:26:e7:4f:ac:0d:60:
         45:1d:7a:61:52:56:b1:62:89:63:bd:20:b9:2d:7d:fc:59:0c:
         ce:c1:c6:d3:5c:9e:4a:39:d6:f7:d4:fc:66:c7:0a:b8:55:cd:
         29:8e:00:58:b0:52:01:8f:e6:48:9b:03:f5:98:27:8f:70:31:
         72:a2:28:9f:fd:3f:cf:80:5f:d6:a7:31:d8:66:88:62:43:3d:
         8f:a6:53:8d:84:14:88:ce:39:b3:cf:fa:9c:bb:96:cb:bb:28:
         1e:5e:29:80:c5:d0:e7:bb:00:d7:5e:f8:95:b1:85:25:06:1b:
         82:e1:dc:66:a9:af:77:56:c4:43:08:24:e3:bb:9e:76:22:a0:
         ab:89:2b:0d:70:11:fc:03:b3:7b:0e:34:a2:52:9b:4e:96:22:
         44:6d:45:ab:2f:4b:37:d9:42:c9:40:0b:08:61:a3:c2:8a:af:
         ea:9b:ff:3a:e9:3e:f8:96:bf:72:d2:f0:dd:38:77:c1:13:8f:
         1e:e9:08:cf:72:e7:75:18:96:85:42:3b:55:f8:fc:a7:38:86:
         d8:e5:a7:cd:bd:ab:3b:68
-----BEGIN CERTIFICATE-----
MIIFszCCA5ugAwIBAgICEAEwDQYJKoZIhvcNAQELBQAwXDELMAkGA1UEBhMCQ1ox
FzAVBgNVBAgMDkN6ZWNoIFJlcHVibGljMQ4wDAYDVQQHDAVMaG90YTERMA8GA1UE
CgwIU29tZWJvZHkxETAPBgNVBAMMCFNvbWVib2R5MB4XDTE1MDcxNDE5MzExMFoX
DTI5MDMyMjE5MzExMFowYDELMAkGA1UEBhMCQ1oxFzAVBgNVBAgMDkN6ZWNoIFJl
cHVibGljMQ4wDAYDVQQHDAVMaG90YTERMA8GA1UECgwIU29tZWJvZHkxFTATBgNV
BAMMDCouZXhhbXBsZS5jejCCAiIwDQYJKoZIhvcNAQEBBQADggIPADCCAgoCggIB
AL7r1yEVHn2ft5vtfF0ABpalHNW1FpeSV3baMUNmt+iqTRBDNmHpnLaAgGE3twhu
Ljcp0MCsixsf7/sHuu5OplOS/UMIcHOzsRX9gmcmwLfSJO6EWxgBi1M8zFmUULf3
s6BRfNxE6NTnvpqTkWekfT4yMdJ4OBfhZAojUHTBMl2mrulVyaogzjuikdjdqpTx
4WJfBJm5N5jq4enwnbyZW9zBGGb6ACc730oF10YMuTUidAnbPPgmlSQ7W7cW7aZ8
UYFOajuceozocVsxswmA4t1n1eOzgimwxXi0g6Otp5NYr5CQWUy4JaVobs+IhL2t
eGdCfaYuKy0YRP9f7D77h8st/tmtYXFIZXcJBtTEchTXQjgFtABKSBdCYJLUUpzA
pSMv9wZbkZKw0W7weT7I1VS8QHjBdCguowFwCAnKuu/S3Dbutzo139T6/nCUSWzy
aiRRl75Eq6kUeJu6meFn2LaVTLKADhTlNFdHzPdtjnra1QN9OddZAwBmG0zVAbhU
kETX99cqaRS1Si8XAGOj5eZ27BMj01E0GnnqVXstnn+VncUXJ21u9qat+3kczBOM
2u5EY81oRQtq/jf0N5ypQ6PsOmEmFpBRvFL3fT4mnMUKhdN0drjg3uLLtiqWjGiu
Rz+OMg+qRrx+w1I6pzbwjbCBgKvBY8Y5bVOGg+9BC+9rAgMBAAGjezB5MAkGA1Ud
EwQCMAAwLAYJYIZIAYb4QgENBB8WHU9wZW5TU0wgR2VuZXJhdGVkIENlcnRpZmlj
YXRlMB0GA1UdDgQWBBRrgRG6VMVWUOiROQWZdmY/F5FxDzAfBgNVHSMEGDAWgBS8
FYUPJlocVhJBkecZuDTdGXhwTTANBgkqhkiG9w0BAQsFAAOCAgEAECApzTvqYJZL
HzlZJmTogKhegj+/IAL12IA4QNTXUEiATPHxv06jkC7NqtQqxphnCKhQ9fWJFThO
wv6sz0C9FTTXPqBeGdAd32sqHQ4JLeOp8PeEcb5Bj8x0l1bhtX4aiCipxV8EYoqc
dl6EFMepshe5dhOCUGiYC0GdgDnRJ6dXGDu1tXAqWgQ+qH9n0QxVe2suDnJTBHkp
IPBWSjwDdEfQsZgOOkkERZ0zHFPeG+p4byWiGrKH9Ke7vGKR3JO3Lzu/yu35/rYo
NFQkDwqeOPPLbcnt9na5UoHlZZ0mnOLtRYMuT81QKLl//MxeOhLkIcTCGYF6S0I8
qySbR4zBzjHhbqrfMNg/ZsRMx/Kb9LfxBTuQ8/pmV94sq3HxFF/iKa8hJH8ojxsr
lqqwJudPrA1gRR16YVJWsWKJY70guS19/FkMzsHG01yeSjnW99T8ZscKuFXNKY4A
WLBSAY/mSJsD9Zgnj3AxcqIon/0/z4Bf1qcx2GaIYkM9j6ZTjYQUiM45s8/6nLuW
y7soHl4pgMXQ57sA1174lbGFJQYbguHcZqmvd1bEQwgk47uediKgq4krDXAR/AOz
ew40olKbTpYiRG1Fqy9LN9lCyUALCGGjwoqv6pv/Ouk++Ja/ctLw3Th3wROPHukI
z3LndRiWhUI7Vfj8pziG2OWnzb2rO2g=
-----END CERTIFICATE-----
